target datalayout = "e-m:e-p270:32:32-p271:32:32-p272:64:64-i64:64-i128:128-f80:128-n8:16:32:64-S128"
target triple = "x86_64-unknown-linux-gnu"

%"class.icu_75::UnicodeString" = type { %"class.icu_75::Replaceable", %"union.icu_75::UnicodeString::StackBufferOrFields" }
%"class.icu_75::Replaceable" = type { %"class.icu_75::UObject" }
%"class.icu_75::UObject" = type { ptr }
%"union.icu_75::UnicodeString::StackBufferOrFields" = type { %struct.anon.0, [32 x i8] }
%struct.anon.0 = type { i16, i32, i32, ptr }
%"class.icu_75::TransliteratorEntry" = type { i32, %"class.icu_75::UnicodeString", i32, ptr, %union.anon }
%union.anon = type { %struct.anon.1 }
%struct.anon.1 = type { ptr, %"union.icu_75::Transliterator::Token" }
%"union.icu_75::Transliterator::Token" = type { ptr }

; Function Attrs: mustprogress nounwind uwtable
define void @_ZN6icu_7519TransliteratorEntry14adoptPrototypeEPNS_14TransliteratorE(ptr noundef nonnull align 8 dereferenceable(104) %this, ptr noundef %adopted) #0 align 2 {
entry:
  %this.addr = alloca ptr, align 8
  %adopted.addr = alloca ptr, align 8
  store ptr %this, ptr %this.addr, align 8
  store ptr %adopted, ptr %adopted.addr, align 8
  %this1 = load ptr, ptr %this.addr, align 8
  %entryType = getelementptr inbounds %"class.icu_75::TransliteratorEntry", ptr %this1, i32 0, i32 0
  %0 = load i32, ptr %entryType, align 8
  %cmp = icmp eq i32 %0, 3
  br i1 %cmp, label %if.then, label %if.end

if.then:                                          ; preds = %entry
  %u = getelementptr inbounds %"class.icu_75::TransliteratorEntry", ptr %this1, i32 0, i32 4
  %1 = load ptr, ptr %u, align 8
  %isnull = icmp eq ptr %1, null
  br i1 %isnull, label %delete.end, label %delete.notnull

delete.notnull:                                   ; preds = %if.then
  %vtable = load ptr, ptr %1, align 8
  %vfn = getelementptr inbounds ptr, ptr %vtable, i64 1
  %2 = load ptr, ptr %vfn, align 8
  call void %2(ptr noundef nonnull align 8 dereferenceable(84) %1) #9
  br label %delete.end

delete.end:                                       ; preds = %delete.notnull, %if.then
  br label %if.end

if.end:                                           ; preds = %delete.end, %entry
  %entryType2 = getelementptr inbounds %"class.icu_75::TransliteratorEntry", ptr %this1, i32 0, i32 0
  store i32 3, ptr %entryType2, align 8
  %3 = load ptr, ptr %adopted.addr, align 8
  %u3 = getelementptr inbounds %"class.icu_75::TransliteratorEntry", ptr %this1, i32 0, i32 4
  store ptr %3, ptr %u3, align 8
  ret void
}